; ModuleID = '22/599.c'
source_filename = "22/599.c"
target datalayout = "e-m:e-p270:32:32-p271:32:32-p272:64:64-i64:64-f80:128-n8:16:32:64-S128"
target triple = "x86_64-pc-linux-gnu"

@.str = private unnamed_addr constant [3 x i8] c"%d\00", align 1
@.str.1 = private unnamed_addr constant [3 x i8] c"No\00", align 1

; Function Attrs: noinline nounwind uwtable
define dso_local i32 @main() #0 {
  %1 = alloca i32, align 4
  %2 = alloca i32, align 4
  %3 = alloca i32, align 4
  %4 = alloca i32, align 4
  %5 = alloca i32, align 4
  %6 = alloca [310 x i32], align 16
  %7 = alloca i8, align 1
  store i32 0, i32* %1, align 4
  store i32 1, i32* %5, align 4
  %8 = getelementptr inbounds [310 x i32], [310 x i32]* %6, i64 0, i64 0
  %9 = call i32 (i8*, ...) @__isoc99_scanf(i8* getelementptr inbounds ([3 x i8], [3 x i8]* @.str, i64 0, i64 0), i32* %8)
  br label %10

10:                                               ; preds = %15, %0
  %11 = call i32 @getchar()
  %12 = trunc i32 %11 to i8
  store i8 %12, i8* %7, align 1
  %13 = sext i8 %12 to i32
  %14 = icmp eq i32 %13, 44
  br i1 %14, label %15, label %22

15:                                               ; preds = %10
  %16 = load i32, i32* %5, align 4
  %17 = sext i32 %16 to i64
  %18 = getelementptr inbounds [310 x i32], [310 x i32]* %6, i64 0, i64 %17
  %19 = call i32 (i8*, ...) @__isoc99_scanf(i8* getelementptr inbounds ([3 x i8], [3 x i8]* @.str, i64 0, i64 0), i32* %18)
  %20 = load i32, i32* %5, align 4
  %21 = add nsw i32 %20, 1
  store i32 %21, i32* %5, align 4
  br label %10

22:                                               ; preds = %10
  %23 = load i32, i32* %5, align 4
  store i32 %23, i32* %4, align 4
  %24 = load i32, i32* %4, align 4
  %25 = icmp eq i32 %24, 1
  br i1 %25, label %26, label %28

26:                                               ; preds = %22
  %27 = call i32 (i8*, ...) @printf(i8* getelementptr inbounds ([3 x i8], [3 x i8]* @.str.1, i64 0, i64 0))
  br label %139

28:                                               ; preds = %22
  store i32 0, i32* %5, align 4
  br label %29

29:                                               ; preds = %43, %28
  %30 = load i32, i32* %5, align 4
  %31 = load i32, i32* %4, align 4
  %32 = icmp slt i32 %30, %31
  br i1 %32, label %33, label %46

33:                                               ; preds = %29
  %34 = load i32, i32* %5, align 4
  %35 = sext i32 %34 to i64
  %36 = getelementptr inbounds [310 x i32], [310 x i32]* %6, i64 0, i64 %35
  %37 = load i32, i32* %36, align 4
  %38 = getelementptr inbounds [310 x i32], [310 x i32]* %6, i64 0, i64 0
  %39 = load i32, i32* %38, align 16
  %40 = icmp ne i32 %37, %39
  br i1 %40, label %41, label %42

41:                                               ; preds = %33
  br label %46

42:                                               ; preds = %33
  br label %43

43:                                               ; preds = %42
  %44 = load i32, i32* %5, align 4
  %45 = add nsw i32 %44, 1
  store i32 %45, i32* %5, align 4
  br label %29

46:                                               ; preds = %41, %29
  %47 = load i32, i32* %5, align 4
  %48 = load i32, i32* %4, align 4
  %49 = icmp eq i32 %47, %48
  br i1 %49, label %50, label %52

50:                                               ; preds = %46
  %51 = call i32 (i8*, ...) @printf(i8* getelementptr inbounds ([3 x i8], [3 x i8]* @.str.1, i64 0, i64 0))
  br label %138

52:                                               ; preds = %46
  store i32 0, i32* %2, align 4
  store i32 1, i32* %5, align 4
  br label %53

53:                                               ; preds = %84, %52
  %54 = load i32, i32* %5, align 4
  %55 = load i32, i32* %4, align 4
  %56 = icmp slt i32 %54, %55
  br i1 %56, label %57, label %87

57:                                               ; preds = %53
  %58 = load i32, i32* %5, align 4
  %59 = sext i32 %58 to i64
  %60 = getelementptr inbounds [310 x i32], [310 x i32]* %6, i64 0, i64 %59
  %61 = load i32, i32* %60, align 4
  %62 = load i32, i32* %2, align 4
  %63 = sext i32 %62 to i64
  %64 = getelementptr inbounds [310 x i32], [310 x i32]* %6, i64 0, i64 %63
  %65 = load i32, i32* %64, align 4
  %66 = icmp slt i32 %61, %65
  br i1 %66, label %67, label %69

67:                                               ; preds = %57
  %68 = load i32, i32* %5, align 4
  store i32 %68, i32* %3, align 4
  br label %87

69:                                               ; preds = %57
  %70 = load i32, i32* %5, align 4
  %71 = sext i32 %70 to i64
  %72 = getelementptr inbounds [310 x i32], [310 x i32]* %6, i64 0, i64 %71
  %73 = load i32, i32* %72, align 4
  %74 = load i32, i32* %2, align 4
  %75 = sext i32 %74 to i64
  %76 = getelementptr inbounds [310 x i32], [310 x i32]* %6, i64 0, i64 %75
  %77 = load i32, i32* %76, align 4
  %78 = icmp sgt i32 %73, %77
  br i1 %78, label %79, label %82

79:                                               ; preds = %69
  %80 = load i32, i32* %2, align 4
  store i32 %80, i32* %3, align 4
  %81 = load i32, i32* %5, align 4
  store i32 %81, i32* %2, align 4
  br label %87

82:                                               ; preds = %69
  br label %83

83:                                               ; preds = %82
  br label %84

84:                                               ; preds = %83
  %85 = load i32, i32* %5, align 4
  %86 = add nsw i32 %85, 1
  store i32 %86, i32* %5, align 4
  br label %53

87:                                               ; preds = %79, %67, %53
  br label %88

88:                                               ; preds = %129, %87
  %89 = load i32, i32* %5, align 4
  %90 = load i32, i32* %4, align 4
  %91 = icmp slt i32 %89, %90
  br i1 %91, label %92, label %132

92:                                               ; preds = %88
  %93 = load i32, i32* %5, align 4
  %94 = sext i32 %93 to i64
  %95 = getelementptr inbounds [310 x i32], [310 x i32]* %6, i64 0, i64 %94
  %96 = load i32, i32* %95, align 4
  %97 = load i32, i32* %2, align 4
  %98 = sext i32 %97 to i64
  %99 = getelementptr inbounds [310 x i32], [310 x i32]* %6, i64 0, i64 %98
  %100 = load i32, i32* %99, align 4
  %101 = icmp sgt i32 %96, %100
  br i1 %101, label %102, label %105

102:                                              ; preds = %92
  %103 = load i32, i32* %2, align 4
  store i32 %103, i32* %3, align 4
  %104 = load i32, i32* %5, align 4
  store i32 %104, i32* %2, align 4
  br label %128

105:                                              ; preds = %92
  %106 = load i32, i32* %5, align 4
  %107 = sext i32 %106 to i64
  %108 = getelementptr inbounds [310 x i32], [310 x i32]* %6, i64 0, i64 %107
  %109 = load i32, i32* %108, align 4
  %110 = load i32, i32* %2, align 4
  %111 = sext i32 %110 to i64
  %112 = getelementptr inbounds [310 x i32], [310 x i32]* %6, i64 0, i64 %111
  %113 = load i32, i32* %112, align 4
  %114 = icmp slt i32 %109, %113
  br i1 %114, label %115, label %127

115:                                              ; preds = %105
  %116 = load i32, i32* %5, align 4
  %117 = sext i32 %116 to i64
  %118 = getelementptr inbounds [310 x i32], [310 x i32]* %6, i64 0, i64 %117
  %119 = load i32, i32* %118, align 4
  %120 = load i32, i32* %3, align 4
  %121 = sext i32 %120 to i64
  %122 = getelementptr inbounds [310 x i32], [310 x i32]* %6, i64 0, i64 %121
  %123 = load i32, i32* %122, align 4
  %124 = icmp sgt i32 %119, %123
  br i1 %124, label %125, label %127

125:                                              ; preds = %115
  %126 = load i32, i32* %5, align 4
  store i32 %126, i32* %3, align 4
  br label %127

127:                                              ; preds = %125, %115, %105
  br label %128

128:                                              ; preds = %127, %102
  br label %129

129:                                              ; preds = %128
  %130 = load i32, i32* %5, align 4
  %131 = add nsw i32 %130, 1
  store i32 %131, i32* %5, align 4
  br label %88

132:                                              ; preds = %88
  %133 = load i32, i32* %3, align 4
  %134 = sext i32 %133 to i64
  %135 = getelementptr inbounds [310 x i32], [310 x i32]* %6, i64 0, i64 %134
  %136 = load i32, i32* %135, align 4
  %137 = call i32 (i8*, ...) @printf(i8* getelementptr inbounds ([3 x i8], [3 x i8]* @.str, i64 0, i64 0), i32 %136)
  br label %138

138:                                              ; preds = %132, %50
  br label %139

139:                                              ; preds = %138, %26
  %140 = load i32, i32* %1, align 4
  ret i32 %140
}

declare dso_local i32 @__isoc99_scanf(i8*, ...) #1

declare dso_local i32 @getchar() #1

declare dso_local i32 @printf(i8*, ...) #1


!llvm.module.flags = !{!0}
!llvm.ident = !{!1}

!0 = !{i32 1, !"wchar_size", i32 4}
!1 = !{!"clang version 10.0.0-4ubuntu1 "}
